target datalayout = "e-m:e-p270:32:32-p271:32:32-p272:64:64-i64:64-i128:128-f80:128-n8:16:32:64-S128"
target triple = "x86_64-pc-linux-gnu"

%struct.strbuf = type { i64, i64, ptr }
%struct.hashmap = type { ptr, ptr, ptr, i32, i32, i32, i32, i8 }
%struct.object_id = type { [32 x i8], i32 }
%struct.worktree = type { ptr, ptr, ptr, ptr, ptr, ptr, %struct.object_id, i32, i32, i32, i32, i32 }
%struct.index_state = type { ptr, i32, i32, i32, i32, ptr, ptr, ptr, %struct.cache_time, i8, i32, %struct.hashmap, %struct.hashmap, %struct.object_id, ptr, ptr, ptr, ptr, ptr, ptr, ptr }
%struct.cache_time = type { i32, i32 }
%struct.cache_entry = type { %struct.hashmap_entry, %struct.stat_data, i32, i32, i32, i32, i32, %struct.object_id, [0 x i8] }
%struct.hashmap_entry = type { ptr, i32 }
%struct.stat_data = type { %struct.cache_time, %struct.cache_time, i32, i32, i32, i32, i32 }

@the_repository = external global ptr, align 8
@strbuf_slopbuf = external global [0 x i8], align 1
@.str.58 = private unnamed_addr constant [11 x i8] c"./strbuf.h\00", align 1
@.str.59 = private unnamed_addr constant [30 x i8] c"strbuf_setlen() beyond buffer\00", align 1
@__const.validate_no_submodules.path = private unnamed_addr constant %struct.strbuf { i64 0, i64 0, ptr @strbuf_slopbuf }, align 8
@.str.159 = private unnamed_addr constant [8 x i8] c"modules\00", align 1
@.str.160 = private unnamed_addr constant [6 x i8] c"index\00", align 1
@.str.161 = private unnamed_addr constant [6 x i8] c"%s/%s\00", align 1
@.str.162 = private unnamed_addr constant [63 x i8] c"working trees containing submodules cannot be moved or removed\00", align 1

; Function Attrs: inlinehint nounwind uwtable
define internal void @strbuf_setlen(ptr noundef %0, i64 noundef %1) #3 {
  %3 = alloca ptr, align 8
  %4 = alloca i64, align 8
  store ptr %0, ptr %3, align 8, !tbaa !92
  store i64 %1, ptr %4, align 8, !tbaa !60
  %5 = load i64, ptr %4, align 8, !tbaa !60
  %6 = load ptr, ptr %3, align 8, !tbaa !92
  %7 = getelementptr inbounds nuw %struct.strbuf, ptr %6, i32 0, i32 0
  %8 = load i64, ptr %7, align 8, !tbaa !96
  %9 = icmp ne i64 %8, 0
  br i1 %9, label %10, label %15

10:                                               ; preds = %2
  %11 = load ptr, ptr %3, align 8, !tbaa !92
  %12 = getelementptr inbounds nuw %struct.strbuf, ptr %11, i32 0, i32 0
  %13 = load i64, ptr %12, align 8, !tbaa !96
  %14 = sub i64 %13, 1
  br label %16

15:                                               ; preds = %2
  br label %16

16:                                               ; preds = %15, %10
  %17 = phi i64 [ %14, %10 ], [ 0, %15 ]
  %18 = icmp ugt i64 %5, %17
  br i1 %18, label %19, label %20

19:                                               ; preds = %16
  call void (ptr, i32, ptr, ...) @BUG_fl(ptr noundef @.str.58, i32 noundef 167, ptr noundef @.str.59) #12
  unreachable

20:                                               ; preds = %16
  %21 = load i64, ptr %4, align 8, !tbaa !60
  %22 = load ptr, ptr %3, align 8, !tbaa !92
  %23 = getelementptr inbounds nuw %struct.strbuf, ptr %22, i32 0, i32 1
  store i64 %21, ptr %23, align 8, !tbaa !83
  %24 = load ptr, ptr %3, align 8, !tbaa !92
  %25 = getelementptr inbounds nuw %struct.strbuf, ptr %24, i32 0, i32 2
  %26 = load ptr, ptr %25, align 8, !tbaa !55
  %27 = icmp ne ptr %26, @strbuf_slopbuf
  br i1 %27, label %28, label %34

28:                                               ; preds = %20
  %29 = load ptr, ptr %3, align 8, !tbaa !92
  %30 = getelementptr inbounds nuw %struct.strbuf, ptr %29, i32 0, i32 2
  %31 = load ptr, ptr %30, align 8, !tbaa !55
  %32 = load i64, ptr %4, align 8, !tbaa !60
  %33 = getelementptr inbounds nuw i8, ptr %31, i64 %32
  store i8 0, ptr %33, align 1, !tbaa !67
  br label %35

34:                                               ; preds = %20
  br label %35

35:                                               ; preds = %34, %28
  ret void
}

; Function Attrs: nounwind uwtable
define internal void @validate_no_submodules(ptr noundef %0) #0 {
  %2 = alloca ptr, align 8
  %3 = alloca %struct.index_state, align 8
  %4 = alloca %struct.strbuf, align 8
  %5 = alloca i32, align 4
  %6 = alloca i32, align 4
  %7 = alloca ptr, align 8
  %8 = alloca i32, align 4
  %9 = alloca i32, align 4
  store ptr %0, ptr %2, align 8, !tbaa !63
  call void @llvm.lifetime.start.p0(i64 256, ptr %3) #11
  call void @llvm.memset.p0.i64(ptr align 8 %3, i8 0, i64 256, i1 false)
  %10 = getelementptr inbounds nuw %struct.index_state, ptr %3, i32 0, i32 19
  %11 = load ptr, ptr @the_repository, align 8, !tbaa !13
  store ptr %11, ptr %10, align 8, !tbaa !121
  call void @llvm.lifetime.start.p0(i64 24, ptr %4) #11
  call void @llvm.memcpy.p0.p0.i64(ptr align 8 %4, ptr align 8 @__const.validate_no_submodules.path, i64 24, i1 false)
  call void @llvm.lifetime.start.p0(i64 4, ptr %5) #11
  call void @llvm.lifetime.start.p0(i64 4, ptr %6) #11
  store i32 0, ptr %6, align 4, !tbaa !4
  %12 = load ptr, ptr @the_repository, align 8, !tbaa !13
  %13 = load ptr, ptr %2, align 8, !tbaa !63
  %14 = call ptr (ptr, ptr, ptr, ...) @worktree_git_path(ptr noundef %12, ptr noundef %13, ptr noundef @.str.159)
  %15 = call i32 @is_directory(ptr noundef %14)
  %16 = icmp ne i32 %15, 0
  br i1 %16, label %17, label %18

17:                                               ; preds = %1
  store i32 1, ptr %6, align 4, !tbaa !4
  br label %65

18:                                               ; preds = %1
  %19 = load ptr, ptr @the_repository, align 8, !tbaa !13
  %20 = load ptr, ptr %2, align 8, !tbaa !63
  %21 = call ptr (ptr, ptr, ptr, ...) @worktree_git_path(ptr noundef %19, ptr noundef %20, ptr noundef @.str.160)
  %22 = load ptr, ptr %2, align 8, !tbaa !63
  %23 = call ptr @get_worktree_git_dir(ptr noundef %22)
  %24 = call i32 @read_index_from(ptr noundef %3, ptr noundef %21, ptr noundef %23)
  %25 = icmp sgt i32 %24, 0
  br i1 %25, label %26, label %64

26:                                               ; preds = %18
  store i32 0, ptr %5, align 4, !tbaa !4
  br label %27

27:                                               ; preds = %60, %26
  %28 = load i32, ptr %5, align 4, !tbaa !4
  %29 = getelementptr inbounds nuw %struct.index_state, ptr %3, i32 0, i32 2
  %30 = load i32, ptr %29, align 4, !tbaa !131
  %31 = icmp ult i32 %28, %30
  br i1 %31, label %32, label %63

32:                                               ; preds = %27
  call void @llvm.lifetime.start.p0(i64 8, ptr %7) #11
  %33 = getelementptr inbounds nuw %struct.index_state, ptr %3, i32 0, i32 0
  %34 = load ptr, ptr %33, align 8, !tbaa !132
  %35 = load i32, ptr %5, align 4, !tbaa !4
  %36 = sext i32 %35 to i64
  %37 = getelementptr inbounds ptr, ptr %34, i64 %36
  %38 = load ptr, ptr %37, align 8, !tbaa !133
  store ptr %38, ptr %7, align 8, !tbaa !133
  call void @llvm.lifetime.start.p0(i64 4, ptr %8) #11
  %39 = load ptr, ptr %7, align 8, !tbaa !133
  %40 = getelementptr inbounds nuw %struct.cache_entry, ptr %39, i32 0, i32 2
  %41 = load i32, ptr %40, align 4, !tbaa !4
  %42 = and i32 %41, 61440
  %43 = icmp eq i32 %42, 57344
  br i1 %43, label %45, label %44

44:                                               ; preds = %32
  store i32 4, ptr %9, align 4
  br label %58

45:                                               ; preds = %32
  call void @strbuf_setlen(ptr noundef %4, i64 noundef 0)
  %46 = load ptr, ptr %2, align 8, !tbaa !63
  %47 = getelementptr inbounds nuw %struct.worktree, ptr %46, i32 0, i32 1
  %48 = load ptr, ptr %47, align 8, !tbaa !71
  %49 = load ptr, ptr %7, align 8, !tbaa !133
  %50 = getelementptr inbounds nuw %struct.cache_entry, ptr %49, i32 0, i32 8
  %51 = getelementptr inbounds [0 x i8], ptr %50, i64 0, i64 0
  call void (ptr, ptr, ...) @strbuf_addf(ptr noundef %4, ptr noundef @.str.161, ptr noundef %48, ptr noundef %51)
  %52 = getelementptr inbounds nuw %struct.strbuf, ptr %4, i32 0, i32 2
  %53 = load ptr, ptr %52, align 8, !tbaa !55
  %54 = call i32 @is_submodule_populated_gently(ptr noundef %53, ptr noundef %8)
  %55 = icmp ne i32 %54, 0
  br i1 %55, label %57, label %56

56:                                               ; preds = %45
  store i32 4, ptr %9, align 4
  br label %58

57:                                               ; preds = %45
  store i32 1, ptr %6, align 4, !tbaa !4
  store i32 2, ptr %9, align 4
  br label %58

58:                                               ; preds = %57, %56, %44
  call void @llvm.lifetime.end.p0(i64 4, ptr %8) #11
  call void @llvm.lifetime.end.p0(i64 8, ptr %7) #11
  %59 = load i32, ptr %9, align 4
  switch i32 %59, label %71 [
    i32 4, label %60
    i32 2, label %63
  ]

60:                                               ; preds = %58
  %61 = load i32, ptr %5, align 4, !tbaa !4
  %62 = add nsw i32 %61, 1
  store i32 %62, ptr %5, align 4, !tbaa !4
  br label %27, !llvm.loop !135

63:                                               ; preds = %58, %27
  br label %64

64:                                               ; preds = %63, %18
  br label %65

65:                                               ; preds = %64, %17
  call void @discard_index(ptr noundef %3)
  call void @strbuf_release(ptr noundef %4)
  %66 = load i32, ptr %6, align 4, !tbaa !4
  %67 = icmp ne i32 %66, 0
  br i1 %67, label %68, label %70

68:                                               ; preds = %65
  %69 = call ptr @_(ptr noundef @.str.162)
  call void (ptr, ...) @die(ptr noundef %69) #12
  unreachable

70:                                               ; preds = %65
  call void @llvm.lifetime.end.p0(i64 4, ptr %6) #11
  call void @llvm.lifetime.end.p0(i64 4, ptr %5) #11
  call void @llvm.lifetime.end.p0(i64 24, ptr %4) #11
  call void @llvm.lifetime.end.p0(i64 256, ptr %3) #11
  ret void

71:                                               ; preds = %58
  unreachable
}