; Function Attrs: nounwind uwtable
define internal fastcc void @validate_no_submodules(ptr noundef nonnull %0) unnamed_addr #0 {
  %2 = alloca %struct.index_state, align 8
  %3 = alloca %struct.strbuf, align 8
  %4 = alloca i32, align 4
  call void @llvm.lifetime.start.p0(i64 256, ptr nonnull %2) #18
  call void @llvm.memset.p0.i64(ptr noundef nonnull align 8 dereferenceable(256) %2, i8 0, i64 256, i1 false)
  %5 = getelementptr inbounds nuw i8, ptr %2, i64 240
  %6 = load ptr, ptr @the_repository, align 8, !tbaa !17
  store ptr %6, ptr %5, align 8, !tbaa !96
  call void @llvm.lifetime.start.p0(i64 24, ptr nonnull %3) #18
  call void @llvm.memcpy.p0.p0.i64(ptr noundef nonnull align 8 dereferenceable(24) %3, ptr noundef nonnull align 8 dereferenceable(24) @__const.delete_git_work_tree.sb, i64 24, i1 false)
  %7 = tail call ptr (ptr, ptr, ptr, ...) @worktree_git_path(ptr noundef %6, ptr noundef nonnull %0, ptr noundef nonnull @.str.159) #18
  %8 = tail call i32 @is_directory(ptr noundef %7) #18
  %.not = icmp eq i32 %8, 0
  br i1 %.not, label %9, label %.critedge25

9:                                                ; preds = %1
  %10 = load ptr, ptr @the_repository, align 8, !tbaa !17
  %11 = tail call ptr (ptr, ptr, ptr, ...) @worktree_git_path(ptr noundef %10, ptr noundef nonnull %0, ptr noundef nonnull @.str.160) #18
  %12 = tail call ptr @get_worktree_git_dir(ptr noundef nonnull %0) #18
  %13 = call i32 @read_index_from(ptr noundef nonnull %2, ptr noundef %11, ptr noundef %12) #18
  %14 = icmp sgt i32 %13, 0
  br i1 %14, label %.preheader, label %.loopexit.loopexit

.preheader:                                       ; preds = %9
  %15 = getelementptr inbounds nuw i8, ptr %2, i64 12
  %16 = load i32, ptr %15, align 4, !tbaa !107
  %.not23 = icmp eq i32 %16, 0
  br i1 %.not23, label %.loopexit.loopexit, label %.lr.ph

.lr.ph:                                           ; preds = %.preheader
  %17 = getelementptr inbounds nuw i8, ptr %3, i64 8
  %18 = getelementptr inbounds nuw i8, ptr %3, i64 16
  %19 = getelementptr inbounds nuw i8, ptr %0, i64 8
  br label %20

20:                                               ; preds = %.lr.ph, %37
  %21 = phi i32 [ %16, %.lr.ph ], [ %38, %37 ]
  %indvars.iv = phi i64 [ 0, %.lr.ph ], [ %indvars.iv.next, %37 ]
  %22 = load ptr, ptr %2, align 8, !tbaa !108
  %23 = getelementptr inbounds nuw ptr, ptr %22, i64 %indvars.iv
  %24 = load ptr, ptr %23, align 8, !tbaa !109
  call void @llvm.lifetime.start.p0(i64 4, ptr nonnull %4) #18
  %25 = getelementptr inbounds nuw i8, ptr %24, i64 52
  %26 = load i32, ptr %25, align 4, !tbaa !38
  %27 = and i32 %26, 61440
  %28 = icmp eq i32 %27, 57344
  br i1 %28, label %29, label %.thread

.thread:                                          ; preds = %20
  call void @llvm.lifetime.end.p0(i64 4, ptr nonnull %4) #18
  br label %37

29:                                               ; preds = %20
  store i64 0, ptr %17, align 8, !tbaa !60
  %30 = load ptr, ptr %18, align 8, !tbaa !50
  %.not9.i = icmp eq ptr %30, @strbuf_slopbuf
  br i1 %.not9.i, label %32, label %31

31:                                               ; preds = %29
  store i8 0, ptr %30, align 1, !tbaa !53
  br label %32

32:                                               ; preds = %31, %29
  %33 = load ptr, ptr %19, align 8, !tbaa !83
  %34 = getelementptr inbounds nuw i8, ptr %24, i64 108
  call void (ptr, ptr, ...) @strbuf_addf(ptr noundef nonnull %3, ptr noundef nonnull @.str.161, ptr noundef %33, ptr noundef nonnull %34) #18
  %35 = load ptr, ptr %18, align 8, !tbaa !50
  %36 = call i32 @is_submodule_populated_gently(ptr noundef %35, ptr noundef nonnull %4) #18
  %.not12 = icmp eq i32 %36, 0
  call void @llvm.lifetime.end.p0(i64 4, ptr nonnull %4) #18
  br i1 %.not12, label %._crit_edge, label %.critedge25

._crit_edge:                                      ; preds = %32
  %.pre = load i32, ptr %15, align 4, !tbaa !107
  br label %37

37:                                               ; preds = %._crit_edge, %.thread
  %38 = phi i32 [ %21, %.thread ], [ %.pre, %._crit_edge ]
  %indvars.iv.next = add nuw nsw i64 %indvars.iv, 1
  %39 = zext i32 %38 to i64
  %40 = icmp samesign ult i64 %indvars.iv.next, %39
  br i1 %40, label %20, label %.loopexit.loopexit, !llvm.loop !111

.critedge25:                                      ; preds = %32, %1
  call void @discard_index(ptr noundef nonnull %2) #18
  call void @strbuf_release(ptr noundef nonnull %3) #18
  %41 = call fastcc ptr @_(ptr noundef nonnull @.str.162)
  call void (ptr, ...) @die(ptr noundef %41) #19
  unreachable

.loopexit.loopexit:                               ; preds = %37, %9, %.preheader
  call void @discard_index(ptr noundef nonnull %2) #18
  call void @strbuf_release(ptr noundef nonnull %3) #18
  call void @llvm.lifetime.end.p0(i64 24, ptr nonnull %3) #18
  call void @llvm.lifetime.end.p0(i64 256, ptr nonnull %2) #18
  ret void
}